; Function Attrs: nounwind uwtable
define internal range(i32 -1, 1) i32 @amr_write_header(ptr noundef readonly captures(none) %0) #1 {
  %2 = getelementptr inbounds nuw i8, ptr %0, i64 32
  %3 = load ptr, ptr %2, align 8, !tbaa !11
  %4 = getelementptr inbounds nuw i8, ptr %0, i64 48
  %5 = load ptr, ptr %4, align 8, !tbaa !61
  %6 = load ptr, ptr %5, align 8, !tbaa !62
  %7 = getelementptr inbounds nuw i8, ptr %6, i64 16
  %8 = load ptr, ptr %7, align 8, !tbaa !26
  %9 = getelementptr inbounds nuw i8, ptr %8, i64 4
  %10 = load i32, ptr %9, align 4, !tbaa !36
  switch i32 %10, label %13 [
    i32 73728, label %11
    i32 73729, label %12
  ]

11:                                               ; preds = %1
  tail call void @avio_write(ptr noundef %3, ptr noundef nonnull @AMR_header, i32 noundef 6) #7
  br label %13

12:                                               ; preds = %1
  tail call void @avio_write(ptr noundef %3, ptr noundef nonnull @AMRWB_header, i32 noundef 9) #7
  br label %13

13:                                               ; preds = %11, %12, %1
  %.0 = phi i32 [ -1, %1 ], [ 0, %12 ], [ 0, %11 ]
  ret i32 %.0
}